target datalayout = "e-m:e-p270:32:32-p271:32:32-p272:64:64-i64:64-i128:128-f80:128-n8:16:32:64-S128"
target triple = "x86_64-pc-linux-gnu"

%class.rational = type { %class.mpq }
%class.mpq = type { %class.mpz, %class.mpz }
%class.mpz = type { i32, i8, ptr }
%"class.lp::int_solver" = type { ptr, ptr, ptr, %class.vector }
%class.vector = type { ptr }
%class.stacked_value = type { i32, %class.vector.6 }
%class.vector.6 = type { ptr }
%"class.lp::lar_core_solver" = type { %class.vector.7, i32, %class.vector.8, %class.vector.9, %class.stacked_value, %class.vector.8, %class.vector.8, %"class.lp::stacked_vector", %"class.lp::stacked_vector.12", %"class.lp::stacked_vector.12", %"class.lp::static_matrix", %"class.lp::stacked_vector.27", %class.vector.29, %class.vector.29, %"class.std::vector.30", %"class.lp::lp_primal_core_solver" }
%class.vector.7 = type { ptr }
%class.vector.9 = type { ptr }
%class.vector.8 = type { ptr }
%"class.lp::stacked_vector" = type { %class.svector, %class.svector, %class.vector.10, %class.vector.11, %class.svector }
%class.vector.10 = type { ptr }
%class.vector.11 = type { ptr }
%"class.lp::stacked_vector.12" = type { %class.svector, %class.svector, %class.vector.13, %class.vector.8, %class.svector }
%class.vector.13 = type { ptr }
%"class.lp::static_matrix" = type { %"class.std::stack", %class.vector.14, %"class.lp::indexed_vector", %"class.std::vector.19", %"class.std::vector.23" }
%"class.std::stack" = type { %"class.std::deque" }
%"class.std::deque" = type { %"class.std::_Deque_base" }
%"class.std::_Deque_base" = type { %"struct.std::_Deque_base<lp::static_matrix<rational, lp::numeric_pair<rational>>::dim, std::allocator<lp::static_matrix<rational, lp::numeric_pair<rational>>::dim>>::_Deque_impl" }
%"struct.std::_Deque_base<lp::static_matrix<rational, lp::numeric_pair<rational>>::dim, std::allocator<lp::static_matrix<rational, lp::numeric_pair<rational>>::dim>>::_Deque_impl" = type { %"struct.std::_Deque_base<lp::static_matrix<rational, lp::numeric_pair<rational>>::dim, std::allocator<lp::static_matrix<rational, lp::numeric_pair<rational>>::dim>>::_Deque_impl_data" }
%"struct.std::_Deque_base<lp::static_matrix<rational, lp::numeric_pair<rational>>::dim, std::allocator<lp::static_matrix<rational, lp::numeric_pair<rational>>::dim>>::_Deque_impl_data" = type { ptr, i64, %"struct.std::_Deque_iterator", %"struct.std::_Deque_iterator" }
%"struct.std::_Deque_iterator" = type { ptr, ptr, ptr, ptr }
%class.vector.14 = type { ptr }
%"class.std::vector.19" = type { %"struct.std::_Vector_base.20" }
%"struct.std::_Vector_base.20" = type { %"struct.std::_Vector_base<std::vector<lp::row_cell<rational>, std_allocator<lp::row_cell<rational>>>, std_allocator<std::vector<lp::row_cell<rational>, std_allocator<lp::row_cell<rational>>>>>::_Vector_impl" }
%"struct.std::_Vector_base<std::vector<lp::row_cell<rational>, std_allocator<lp::row_cell<rational>>>, std_allocator<std::vector<lp::row_cell<rational>, std_allocator<lp::row_cell<rational>>>>>::_Vector_impl" = type { %"struct.std::_Vector_base<std::vector<lp::row_cell<rational>, std_allocator<lp::row_cell<rational>>>, std_allocator<std::vector<lp::row_cell<rational>, std_allocator<lp::row_cell<rational>>>>>::_Vector_impl_data" }
%"struct.std::_Vector_base<std::vector<lp::row_cell<rational>, std_allocator<lp::row_cell<rational>>>, std_allocator<std::vector<lp::row_cell<rational>, std_allocator<lp::row_cell<rational>>>>>::_Vector_impl_data" = type { ptr, ptr, ptr }
%"class.std::vector.23" = type { %"struct.std::_Vector_base.24" }
%"struct.std::_Vector_base.24" = type { %"struct.std::_Vector_base<std::vector<lp::row_cell<lp::empty_struct>, std_allocator<lp::row_cell<lp::empty_struct>>>, std_allocator<std::vector<lp::row_cell<lp::empty_struct>, std_allocator<lp::row_cell<lp::empty_struct>>>>>::_Vector_impl" }
%"struct.std::_Vector_base<std::vector<lp::row_cell<lp::empty_struct>, std_allocator<lp::row_cell<lp::empty_struct>>>, std_allocator<std::vector<lp::row_cell<lp::empty_struct>, std_allocator<lp::row_cell<lp::empty_struct>>>>>::_Vector_impl" = type { %"struct.std::_Vector_base<std::vector<lp::row_cell<lp::empty_struct>, std_allocator<lp::row_cell<lp::empty_struct>>>, std_allocator<std::vector<lp::row_cell<lp::empty_struct>, std_allocator<lp::row_cell<lp::empty_struct>>>>>::_Vector_impl_data" }
%"struct.std::_Vector_base<std::vector<lp::row_cell<lp::empty_struct>, std_allocator<lp::row_cell<lp::empty_struct>>>, std_allocator<std::vector<lp::row_cell<lp::empty_struct>, std_allocator<lp::row_cell<lp::empty_struct>>>>>::_Vector_impl_data" = type { ptr, ptr, ptr }
%class.vector.29 = type { ptr }
%"class.std::vector.30" = type { %"struct.std::_Vector_base.31" }
%"struct.std::_Vector_base.31" = type { %"struct.std::_Vector_base<int, std_allocator<int>>::_Vector_impl" }
%"struct.std::_Vector_base<int, std_allocator<int>>::_Vector_impl" = type { %"struct.std::_Vector_base<int, std_allocator<int>>::_Vector_impl_data" }
%"struct.std::_Vector_base<int, std_allocator<int>>::_Vector_impl_data" = type { ptr, ptr, ptr }
%"class.lp::lp_primal_core_solver" = type { %"class.lp::lp_core_solver_base.base", i32, %class.vector.9, i32, i8, %class.indexed_uint_set, i32, i32, %class.vector.29, %"class.std::__cxx11::list" }
%"class.lp::lp_core_solver_base.base" = type <{ ptr, i32, i32, i32, [4 x i8], %class.heap, %"class.lp::indexed_vector", ptr, ptr, ptr, ptr, ptr, ptr, ptr, ptr, %class.vector.9, ptr, ptr, ptr, i32, [4 x i8], %class.vector.29, i8, [7 x i8], ptr, i8 }>
%class.heap = type { %class.svector.34, %class.svector.34 }
%class.svector.34 = type { %class.vector.35 }
%class.vector.35 = type { ptr }
%"class.std::__cxx11::list" = type { %"class.std::__cxx11::_List_base" }
%"class.std::__cxx11::_List_base" = type { %"struct.std::__cxx11::_List_base<unsigned int, std::allocator<unsigned int>>::_List_impl" }
%"struct.std::__cxx11::_List_base<unsigned int, std::allocator<unsigned int>>::_List_impl" = type { %"struct.std::__detail::_List_node_header" }
%"struct.std::__detail::_List_node_header" = type { %"struct.std::__detail::_List_node_base", i64 }
%"struct.std::__detail::_List_node_base" = type { ptr, ptr }
%class.svector = type { %class.vector.1 }
%class.vector.1 = type { ptr }
%"class.lp::indexed_vector" = type { %"class.std::vector", %"class.std::vector.15" }
%"class.std::vector" = type { %"struct.std::_Vector_base" }
%"struct.std::_Vector_base" = type { %"struct.std::_Vector_base<rational, std_allocator<rational>>::_Vector_impl" }
%"struct.std::_Vector_base<rational, std_allocator<rational>>::_Vector_impl" = type { %"struct.std::_Vector_base<rational, std_allocator<rational>>::_Vector_impl_data" }
%"struct.std::_Vector_base<rational, std_allocator<rational>>::_Vector_impl_data" = type { ptr, ptr, ptr }
%"class.std::vector.15" = type { %"struct.std::_Vector_base.16" }
%"struct.std::_Vector_base.16" = type { %"struct.std::_Vector_base<unsigned int, std_allocator<unsigned int>>::_Vector_impl" }
%"struct.std::_Vector_base<unsigned int, std_allocator<unsigned int>>::_Vector_impl" = type { %"struct.std::_Vector_base<unsigned int, std_allocator<unsigned int>>::_Vector_impl_data" }
%"struct.std::_Vector_base<unsigned int, std_allocator<unsigned int>>::_Vector_impl_data" = type { ptr, ptr, ptr }
%"class.lp::stacked_vector.27" = type { %class.svector, %class.svector, %class.vector.28, %class.vector.29, %class.svector }
%class.vector.28 = type { ptr }
%class.indexed_uint_set = type { i32, %class.svector, %class.svector }
%"struct.lp::numeric_pair" = type { %class.rational, %class.rational }
%"class.lp::lp_core_solver_base" = type <{ ptr, i32, i32, i32, [4 x i8], %class.heap, %"class.lp::indexed_vector", ptr, ptr, ptr, ptr, ptr, ptr, ptr, ptr, %class.vector.9, ptr, ptr, ptr, i32, [4 x i8], %class.vector.29, i8, [7 x i8], ptr, i8, [7 x i8] }>

; Function Attrs: mustprogress nounwind uwtable
define linkonce_odr hidden noundef nonnull align 8 dereferenceable(64) ptr @_ZN6vectorIN2lp12numeric_pairI8rationalEELb1EjEixEj(ptr noundef nonnull align 8 dereferenceable(8) %0, i32 noundef %1) #4 comdat align 2 {
  %3 = alloca ptr, align 8
  %4 = alloca i32, align 4
  store ptr %0, ptr %3, align 8, !tbaa !288
  store i32 %1, ptr %4, align 4, !tbaa !8
  %5 = load ptr, ptr %3, align 8
  %6 = getelementptr inbounds nuw %class.vector.8, ptr %5, i32 0, i32 0
  %7 = load ptr, ptr %6, align 8, !tbaa !289
  %8 = load i32, ptr %4, align 4, !tbaa !8
  %9 = zext i32 %8 to i64
  %10 = getelementptr inbounds nuw %"struct.lp::numeric_pair", ptr %7, i64 %9
  ret ptr %10
}

; Function Attrs: mustprogress uwtable
define linkonce_odr hidden noundef nonnull align 8 dereferenceable(64) ptr @_ZN2lp15lar_core_solver3r_xEj(ptr noundef nonnull align 8 dereferenceable(752) %0, i32 noundef %1) #6 comdat align 2 {
  %3 = alloca ptr, align 8
  %4 = alloca i32, align 4
  store ptr %0, ptr %3, align 8, !tbaa !30
  store i32 %1, ptr %4, align 4, !tbaa !8
  %5 = load ptr, ptr %3, align 8
  %6 = getelementptr inbounds nuw %"class.lp::lar_core_solver", ptr %5, i32 0, i32 5
  %7 = load i32, ptr %4, align 4, !tbaa !8
  %8 = call noundef nonnull align 8 dereferenceable(64) ptr @_ZN6vectorIN2lp12numeric_pairI8rationalEELb1EjEixEj(ptr noundef nonnull align 8 dereferenceable(8) %6, i32 noundef %7)
  ret ptr %8
}

; Function Attrs: mustprogress uwtable
define hidden noundef nonnull align 8 dereferenceable(64) ptr @_ZNK2lp10int_solver9get_valueEj(ptr noundef nonnull align 8 dereferenceable(32) %0, i32 noundef %1) #6 align 2 {
  %3 = alloca ptr, align 8
  %4 = alloca i32, align 4
  store ptr %0, ptr %3, align 8, !tbaa !20
  store i32 %1, ptr %4, align 4, !tbaa !8
  %5 = load ptr, ptr %3, align 8
  %6 = getelementptr inbounds nuw %"class.lp::int_solver", ptr %5, i32 0, i32 1
  %7 = load ptr, ptr %6, align 8, !tbaa !36
  %8 = load i32, ptr %4, align 4, !tbaa !8
  %9 = call noundef nonnull align 8 dereferenceable(64) ptr @_ZN2lp15lar_core_solver3r_xEj(ptr noundef nonnull align 8 dereferenceable(752) %7, i32 noundef %8)
  ret ptr %9
}

; Function Attrs: mustprogress nounwind uwtable
define linkonce_odr hidden noundef nonnull align 8 dereferenceable(64) ptr @_ZNK6vectorIN2lp12numeric_pairI8rationalEELb1EjEixEj(ptr noundef nonnull align 8 dereferenceable(8) %0, i32 noundef %1) #4 comdat align 2 {
  %3 = alloca ptr, align 8
  %4 = alloca i32, align 4
  store ptr %0, ptr %3, align 8, !tbaa !288
  store i32 %1, ptr %4, align 4, !tbaa !8
  %5 = load ptr, ptr %3, align 8
  %6 = getelementptr inbounds nuw %class.vector.8, ptr %5, i32 0, i32 0
  %7 = load ptr, ptr %6, align 8, !tbaa !289
  %8 = load i32, ptr %4, align 4, !tbaa !8
  %9 = zext i32 %8 to i64
  %10 = getelementptr inbounds nuw %"struct.lp::numeric_pair", ptr %7, i64 %9
  ret ptr %10
}

; Function Attrs: mustprogress nounwind uwtable
define linkonce_odr hidden noundef nonnull align 4 dereferenceable(4) ptr @_ZNK6vectorIN2lp11column_typeELb1EjEixEj(ptr noundef nonnull align 8 dereferenceable(8) %0, i32 noundef %1) #4 comdat align 2 {
  %3 = alloca ptr, align 8
  %4 = alloca i32, align 4
  store ptr %0, ptr %3, align 8, !tbaa !286
  store i32 %1, ptr %4, align 4, !tbaa !8
  %5 = load ptr, ptr %3, align 8
  %6 = getelementptr inbounds nuw %class.vector.11, ptr %5, i32 0, i32 0
  %7 = load ptr, ptr %6, align 8, !tbaa !287
  %8 = load i32, ptr %4, align 4, !tbaa !8
  %9 = zext i32 %8 to i64
  %10 = getelementptr inbounds nuw i32, ptr %7, i64 %9
  ret ptr %10
}

; Function Attrs: mustprogress uwtable
define hidden noundef zeroext i1 @_ZNK2lp10int_solver8at_boundEj(ptr noundef nonnull align 8 dereferenceable(32) %0, i32 noundef %1) #6 align 2 {
  %3 = alloca i1, align 1
  %4 = alloca ptr, align 8
  %5 = alloca i32, align 4
  %6 = alloca ptr, align 8
  %7 = alloca i32, align 4
  store ptr %0, ptr %4, align 8, !tbaa !20
  store i32 %1, ptr %5, align 4, !tbaa !8
  %8 = load ptr, ptr %4, align 8
  call void @llvm.lifetime.start.p0(i64 8, ptr %6) #3
  %9 = getelementptr inbounds nuw %"class.lp::int_solver", ptr %8, i32 0, i32 1
  %10 = load ptr, ptr %9, align 8, !tbaa !36
  %11 = getelementptr inbounds nuw %"class.lp::lar_core_solver", ptr %10, i32 0, i32 15
  store ptr %11, ptr %6, align 8, !tbaa !284
  %12 = load ptr, ptr %6, align 8, !tbaa !284
  %13 = getelementptr inbounds nuw %"class.lp::lp_core_solver_base", ptr %12, i32 0, i32 16
  %14 = load ptr, ptr %13, align 8, !tbaa !276
  %15 = load i32, ptr %5, align 4, !tbaa !8
  %16 = call noundef nonnull align 4 dereferenceable(4) ptr @_ZNK6vectorIN2lp11column_typeELb1EjEixEj(ptr noundef nonnull align 8 dereferenceable(8) %14, i32 noundef %15)
  %17 = load i32, ptr %16, align 4, !tbaa !249
  switch i32 %17, label %56 [
    i32 4, label %18
    i32 3, label %18
    i32 1, label %38
    i32 2, label %47
  ]

18:                                               ; preds = %2, %2
  %19 = load ptr, ptr %6, align 8, !tbaa !284
  %20 = getelementptr inbounds nuw %"class.lp::lp_core_solver_base", ptr %19, i32 0, i32 17
  %21 = load ptr, ptr %20, align 8, !tbaa !267
  %22 = load i32, ptr %5, align 4, !tbaa !8
  %23 = call noundef nonnull align 8 dereferenceable(64) ptr @_ZNK6vectorIN2lp12numeric_pairI8rationalEELb1EjEixEj(ptr noundef nonnull align 8 dereferenceable(8) %21, i32 noundef %22)
  %24 = load i32, ptr %5, align 4, !tbaa !8
  %25 = call noundef nonnull align 8 dereferenceable(64) ptr @_ZNK2lp10int_solver9get_valueEj(ptr noundef nonnull align 8 dereferenceable(32) %8, i32 noundef %24)
  %26 = call noundef zeroext i1 @_ZNK2lp12numeric_pairI8rationalEeqERKS2_(ptr noundef nonnull align 8 dereferenceable(64) %23, ptr noundef nonnull align 8 dereferenceable(64) %25)
  br i1 %26, label %36, label %27

27:                                               ; preds = %18
  %28 = load ptr, ptr %6, align 8, !tbaa !284
  %29 = getelementptr inbounds nuw %"class.lp::lp_core_solver_base", ptr %28, i32 0, i32 18
  %30 = load ptr, ptr %29, align 8, !tbaa !268
  %31 = load i32, ptr %5, align 4, !tbaa !8
  %32 = call noundef nonnull align 8 dereferenceable(64) ptr @_ZNK6vectorIN2lp12numeric_pairI8rationalEELb1EjEixEj(ptr noundef nonnull align 8 dereferenceable(8) %30, i32 noundef %31)
  %33 = load i32, ptr %5, align 4, !tbaa !8
  %34 = call noundef nonnull align 8 dereferenceable(64) ptr @_ZNK2lp10int_solver9get_valueEj(ptr noundef nonnull align 8 dereferenceable(32) %8, i32 noundef %33)
  %35 = call noundef zeroext i1 @_ZNK2lp12numeric_pairI8rationalEeqERKS2_(ptr noundef nonnull align 8 dereferenceable(64) %32, ptr noundef nonnull align 8 dereferenceable(64) %34)
  br label %36

36:                                               ; preds = %27, %18
  %37 = phi i1 [ true, %18 ], [ %35, %27 ]
  store i1 %37, ptr %3, align 1
  store i32 1, ptr %7, align 4
  br label %57

38:                                               ; preds = %2
  %39 = load ptr, ptr %6, align 8, !tbaa !284
  %40 = getelementptr inbounds nuw %"class.lp::lp_core_solver_base", ptr %39, i32 0, i32 17
  %41 = load ptr, ptr %40, align 8, !tbaa !267
  %42 = load i32, ptr %5, align 4, !tbaa !8
  %43 = call noundef nonnull align 8 dereferenceable(64) ptr @_ZNK6vectorIN2lp12numeric_pairI8rationalEELb1EjEixEj(ptr noundef nonnull align 8 dereferenceable(8) %41, i32 noundef %42)
  %44 = load i32, ptr %5, align 4, !tbaa !8
  %45 = call noundef nonnull align 8 dereferenceable(64) ptr @_ZNK2lp10int_solver9get_valueEj(ptr noundef nonnull align 8 dereferenceable(32) %8, i32 noundef %44)
  %46 = call noundef zeroext i1 @_ZNK2lp12numeric_pairI8rationalEeqERKS2_(ptr noundef nonnull align 8 dereferenceable(64) %43, ptr noundef nonnull align 8 dereferenceable(64) %45)
  store i1 %46, ptr %3, align 1
  store i32 1, ptr %7, align 4
  br label %57

47:                                               ; preds = %2
  %48 = load ptr, ptr %6, align 8, !tbaa !284
  %49 = getelementptr inbounds nuw %"class.lp::lp_core_solver_base", ptr %48, i32 0, i32 18
  %50 = load ptr, ptr %49, align 8, !tbaa !268
  %51 = load i32, ptr %5, align 4, !tbaa !8
  %52 = call noundef nonnull align 8 dereferenceable(64) ptr @_ZNK6vectorIN2lp12numeric_pairI8rationalEELb1EjEixEj(ptr noundef nonnull align 8 dereferenceable(8) %50, i32 noundef %51)
  %53 = load i32, ptr %5, align 4, !tbaa !8
  %54 = call noundef nonnull align 8 dereferenceable(64) ptr @_ZNK2lp10int_solver9get_valueEj(ptr noundef nonnull align 8 dereferenceable(32) %8, i32 noundef %53)
  %55 = call noundef zeroext i1 @_ZNK2lp12numeric_pairI8rationalEeqERKS2_(ptr noundef nonnull align 8 dereferenceable(64) %52, ptr noundef nonnull align 8 dereferenceable(64) %54)
  store i1 %55, ptr %3, align 1
  store i32 1, ptr %7, align 4
  br label %57

56:                                               ; preds = %2
  store i1 false, ptr %3, align 1
  store i32 1, ptr %7, align 4
  br label %57

57:                                               ; preds = %56, %47, %38, %36
  call void @llvm.lifetime.end.p0(i64 8, ptr %6) #3
  %58 = load i1, ptr %3, align 1
  ret i1 %58
}